target datalayout = "e-m:e-p270:32:32-p271:32:32-p272:64:64-i64:64-i128:128-f80:128-n8:16:32:64-S128"
target triple = "x86_64-pc-linux-gnu"

%struct.FunctionCallInfoBaseData = type { ptr, ptr, ptr, i32, i8, i16, [0 x %struct.NullableDatum] }
%struct.NullableDatum = type { i64, i8 }
%union.anon = type { i32 }
%union.anon.1 = type { double }

; Function Attrs: inlinehint nounwind uwtable
define internal i64 @Int64GetDatum(i64 noundef %0) #3 {
  %2 = alloca i64, align 8
  store i64 %0, ptr %2, align 8
  %3 = load i64, ptr %2, align 8
  ret i64 %3
}

; Function Attrs: inlinehint nounwind uwtable
define internal i32 @DatumGetInt32(i64 noundef %0) #3 {
  %2 = alloca i64, align 8
  store i64 %0, ptr %2, align 8
  %3 = load i64, ptr %2, align 8
  %4 = trunc i64 %3 to i32
  ret i32 %4
}

; Function Attrs: inlinehint nounwind uwtable
define internal double @get_float8_infinity() #3 {
  ret double 0x7FF0000000000000
}

; Function Attrs: inlinehint nounwind uwtable
define internal i64 @Float8GetDatum(double noundef %0) #3 {
  %2 = alloca double, align 8
  %3 = alloca %union.anon.1, align 8
  store double %0, ptr %2, align 8
  call void @llvm.lifetime.start.p0(i64 8, ptr %3) #8
  %4 = load double, ptr %2, align 8
  store double %4, ptr %3, align 8
  %5 = load i64, ptr %3, align 8
  %6 = call i64 @Int64GetDatum(i64 noundef %5)
  call void @llvm.lifetime.end.p0(i64 8, ptr %3) #8
  ret i64 %6
}

; Function Attrs: inlinehint nounwind uwtable
define internal float @DatumGetFloat4(i64 noundef %0) #3 {
  %2 = alloca i64, align 8
  %3 = alloca %union.anon, align 4
  store i64 %0, ptr %2, align 8
  call void @llvm.lifetime.start.p0(i64 4, ptr %3) #8
  %4 = load i64, ptr %2, align 8
  %5 = call i32 @DatumGetInt32(i64 noundef %4)
  store i32 %5, ptr %3, align 4
  %6 = load float, ptr %3, align 4
  call void @llvm.lifetime.end.p0(i64 4, ptr %3) #8
  ret float %6
}

; Function Attrs: nounwind uwtable
define dso_local i64 @brin_minmax_multi_distance_float4(ptr noundef %0) #0 {
  %2 = alloca i64, align 8
  %3 = alloca ptr, align 8
  %4 = alloca float, align 4
  %5 = alloca float, align 4
  %6 = alloca i32, align 4
  store ptr %0, ptr %3, align 8
  call void @llvm.lifetime.start.p0(i64 4, ptr %4) #8
  %7 = load ptr, ptr %3, align 8
  %8 = getelementptr inbounds nuw %struct.FunctionCallInfoBaseData, ptr %7, i32 0, i32 6
  %9 = getelementptr inbounds [0 x %struct.NullableDatum], ptr %8, i64 0, i64 0
  %10 = getelementptr inbounds nuw %struct.NullableDatum, ptr %9, i32 0, i32 0
  %11 = load i64, ptr %10, align 8
  %12 = call float @DatumGetFloat4(i64 noundef %11)
  store float %12, ptr %4, align 4
  call void @llvm.lifetime.start.p0(i64 4, ptr %5) #8
  %13 = load ptr, ptr %3, align 8
  %14 = getelementptr inbounds nuw %struct.FunctionCallInfoBaseData, ptr %13, i32 0, i32 6
  %15 = getelementptr inbounds [0 x %struct.NullableDatum], ptr %14, i64 0, i64 1
  %16 = getelementptr inbounds nuw %struct.NullableDatum, ptr %15, i32 0, i32 0
  %17 = load i64, ptr %16, align 8
  %18 = call float @DatumGetFloat4(i64 noundef %17)
  store float %18, ptr %5, align 4
  %19 = load float, ptr %4, align 4
  %20 = call i1 @llvm.is.fpclass.f32(float %19, i32 3)
  br i1 %20, label %21, label %26

21:                                               ; preds = %1
  %22 = load float, ptr %5, align 4
  %23 = call i1 @llvm.is.fpclass.f32(float %22, i32 3)
  br i1 %23, label %24, label %26

24:                                               ; preds = %21
  %25 = call i64 @Float8GetDatum(double noundef 0.000000e+00)
  store i64 %25, ptr %2, align 8
  store i32 1, ptr %6, align 4
  br label %42

26:                                               ; preds = %21, %1
  %27 = load float, ptr %4, align 4
  %28 = call i1 @llvm.is.fpclass.f32(float %27, i32 3)
  br i1 %28, label %32, label %29

29:                                               ; preds = %26
  %30 = load float, ptr %5, align 4
  %31 = call i1 @llvm.is.fpclass.f32(float %30, i32 3)
  br i1 %31, label %32, label %35

32:                                               ; preds = %29, %26
  %33 = call double @get_float8_infinity()
  %34 = call i64 @Float8GetDatum(double noundef %33)
  store i64 %34, ptr %2, align 8
  store i32 1, ptr %6, align 4
  br label %42

35:                                               ; preds = %29
  %36 = load float, ptr %5, align 4
  %37 = fpext float %36 to double
  %38 = load float, ptr %4, align 4
  %39 = fpext float %38 to double
  %40 = fsub double %37, %39
  %41 = call i64 @Float8GetDatum(double noundef %40)
  store i64 %41, ptr %2, align 8
  store i32 1, ptr %6, align 4
  br label %42

42:                                               ; preds = %35, %32, %24
  call void @llvm.lifetime.end.p0(i64 4, ptr %5) #8
  call void @llvm.lifetime.end.p0(i64 4, ptr %4) #8
  %43 = load i64, ptr %2, align 8
  ret i64 %43
}