; Function Attrs: mustprogress nofree norecurse nosync nounwind willreturn memory(argmem: read) uwtable
define dso_local i64 @brin_minmax_multi_distance_float4(ptr noundef readonly captures(none) %0) local_unnamed_addr #3 {
  %2 = getelementptr inbounds nuw i8, ptr %0, i64 32
  %3 = load i64, ptr %2, align 8
  %4 = trunc i64 %3 to i32
  %5 = bitcast i32 %4 to float
  %6 = getelementptr inbounds nuw i8, ptr %0, i64 48
  %7 = load i64, ptr %6, align 8
  %8 = trunc i64 %7 to i32
  %9 = bitcast i32 %8 to float
  %10 = fcmp uno float %5, 0.000000e+00
  %11 = fcmp uno float %9, 0.000000e+00
  %or.cond = select i1 %10, i1 %11, i1 false
  br i1 %or.cond, label %18, label %12

12:                                               ; preds = %1
  %or.cond8 = select i1 %10, i1 true, i1 %11
  br i1 %or.cond8, label %18, label %13

13:                                               ; preds = %12
  %14 = fpext float %9 to double
  %15 = fpext float %5 to double
  %16 = fsub double %14, %15
  %17 = bitcast double %16 to i64
  br label %18

18:                                               ; preds = %12, %1, %13
  %.0 = phi i64 [ %17, %13 ], [ 0, %1 ], [ 9218868437227405312, %12 ]
  ret i64 %.0
}